; Function Attrs: nounwind uwtable
define range(i32 -1, 1) i32 @evtag_consume(ptr noundef %0) local_unnamed_addr #1 {
  %2 = tail call i32 @evtag_unmarshal_header(ptr noundef %0, ptr noundef null)
  %3 = icmp eq i32 %2, -1
  br i1 %3, label %7, label %4

4:                                                ; preds = %1
  %5 = sext i32 %2 to i64
  %6 = tail call i32 @evbuffer_drain(ptr noundef %0, i64 noundef %5) #7
  br label %7

7:                                                ; preds = %1, %4
  %.0 = phi i32 [ 0, %4 ], [ -1, %1 ]
  ret i32 %.0
}